target datalayout = "e-m:e-p270:32:32-p271:32:32-p272:64:64-i64:64-i128:128-f80:128-n8:16:32:64-S128"
target triple = "x86_64-pc-linux-gnu"

; Function Attrs: nounwind uwtable
define void @denseMatvec(ptr noundef %0, ptr noundef %1, ptr noundef %2, i64 noundef %3, i64 noundef %4) #0 {
  %6 = alloca ptr, align 8
  %7 = alloca ptr, align 8
  %8 = alloca ptr, align 8
  %9 = alloca i64, align 8
  %10 = alloca i64, align 8
  %11 = alloca i64, align 8
  %12 = alloca i64, align 8
  %13 = alloca ptr, align 8
  store ptr %0, ptr %6, align 8, !tbaa !18
  store ptr %1, ptr %7, align 8, !tbaa !20
  store ptr %2, ptr %8, align 8, !tbaa !20
  store i64 %3, ptr %9, align 8, !tbaa !19
  store i64 %4, ptr %10, align 8, !tbaa !19
  call void @llvm.lifetime.start.p0(i64 8, ptr %11) #4
  call void @llvm.lifetime.start.p0(i64 8, ptr %12) #4
  call void @llvm.lifetime.start.p0(i64 8, ptr %13) #4
  store i64 0, ptr %11, align 8, !tbaa !19
  br label %14

14:                                               ; preds = %22, %5
  %15 = load i64, ptr %11, align 8, !tbaa !19
  %16 = load i64, ptr %9, align 8, !tbaa !19
  %17 = icmp slt i64 %15, %16
  br i1 %17, label %18, label %25

18:                                               ; preds = %14
  %19 = load ptr, ptr %8, align 8, !tbaa !20
  %20 = load i64, ptr %11, align 8, !tbaa !19
  %21 = getelementptr inbounds double, ptr %19, i64 %20
  store double 0.000000e+00, ptr %21, align 8, !tbaa !21
  br label %22

22:                                               ; preds = %18
  %23 = load i64, ptr %11, align 8, !tbaa !19
  %24 = add nsw i64 %23, 1
  store i64 %24, ptr %11, align 8, !tbaa !19
  br label %14, !llvm.loop !59

25:                                               ; preds = %14
  store i64 0, ptr %12, align 8, !tbaa !19
  br label %26

26:                                               ; preds = %57, %25
  %27 = load i64, ptr %12, align 8, !tbaa !19
  %28 = load i64, ptr %10, align 8, !tbaa !19
  %29 = icmp slt i64 %27, %28
  br i1 %29, label %30, label %60

30:                                               ; preds = %26
  %31 = load ptr, ptr %6, align 8, !tbaa !18
  %32 = load i64, ptr %12, align 8, !tbaa !19
  %33 = getelementptr inbounds ptr, ptr %31, i64 %32
  %34 = load ptr, ptr %33, align 8, !tbaa !20
  store ptr %34, ptr %13, align 8, !tbaa !20
  store i64 0, ptr %11, align 8, !tbaa !19
  br label %35

35:                                               ; preds = %53, %30
  %36 = load i64, ptr %11, align 8, !tbaa !19
  %37 = load i64, ptr %9, align 8, !tbaa !19
  %38 = icmp slt i64 %36, %37
  br i1 %38, label %39, label %56

39:                                               ; preds = %35
  %40 = load ptr, ptr %13, align 8, !tbaa !20
  %41 = load i64, ptr %11, align 8, !tbaa !19
  %42 = getelementptr inbounds double, ptr %40, i64 %41
  %43 = load double, ptr %42, align 8, !tbaa !21
  %44 = load ptr, ptr %7, align 8, !tbaa !20
  %45 = load i64, ptr %12, align 8, !tbaa !19
  %46 = getelementptr inbounds double, ptr %44, i64 %45
  %47 = load double, ptr %46, align 8, !tbaa !21
  %48 = load ptr, ptr %8, align 8, !tbaa !20
  %49 = load i64, ptr %11, align 8, !tbaa !19
  %50 = getelementptr inbounds double, ptr %48, i64 %49
  %51 = load double, ptr %50, align 8, !tbaa !21
  %52 = call double @llvm.fmuladd.f64(double %43, double %47, double %51)
  store double %52, ptr %50, align 8, !tbaa !21
  br label %53

53:                                               ; preds = %39
  %54 = load i64, ptr %11, align 8, !tbaa !19
  %55 = add nsw i64 %54, 1
  store i64 %55, ptr %11, align 8, !tbaa !19
  br label %35, !llvm.loop !60

56:                                               ; preds = %35
  br label %57

57:                                               ; preds = %56
  %58 = load i64, ptr %12, align 8, !tbaa !19
  %59 = add nsw i64 %58, 1
  store i64 %59, ptr %12, align 8, !tbaa !19
  br label %26, !llvm.loop !61

60:                                               ; preds = %26
  call void @llvm.lifetime.end.p0(i64 8, ptr %13) #4
  call void @llvm.lifetime.end.p0(i64 8, ptr %12) #4
  call void @llvm.lifetime.end.p0(i64 8, ptr %11) #4
  ret void
}